target datalayout = "e-m:e-p270:32:32-p271:32:32-p272:64:64-i64:64-i128:128-f80:128-n8:16:32:64-S128"
target triple = "x86_64-pc-linux-gnu"

%struct.PyVarObject = type { %struct._object, i64 }
%struct._object = type { %union.anon, ptr }
%union.anon = type { i64 }
%struct.PyCodeLikeObject = type { %struct._object, ptr, i64, i32 }
%struct._typeobject = type { %struct.PyVarObject, ptr, i64, i64, ptr, i64, ptr, ptr, ptr, ptr, ptr, ptr, ptr, ptr, ptr, ptr, ptr, ptr, ptr, i64, ptr, ptr, ptr, ptr, i64, ptr, ptr, ptr, ptr, ptr, ptr, ptr, ptr, ptr, i64, ptr, ptr, ptr, ptr, ptr, ptr, ptr, ptr, ptr, ptr, ptr, i32, ptr, ptr, i8, i16 }

@.str.7 = private unnamed_addr constant [2 x i8] c"i\00", align 1

; Function Attrs: nounwind uwtable
define internal ptr @CodeLike_new(ptr noundef %0, ptr noundef %1, ptr noundef %2) #0 {
  %4 = alloca ptr, align 8
  %5 = alloca ptr, align 8
  %6 = alloca ptr, align 8
  %7 = alloca ptr, align 8
  %8 = alloca i32, align 4
  %9 = alloca i32, align 4
  %10 = alloca ptr, align 8
  %11 = alloca ptr, align 8
  store ptr %0, ptr %5, align 8, !tbaa !31
  store ptr %1, ptr %6, align 8, !tbaa !3
  store ptr %2, ptr %7, align 8, !tbaa !3
  call void @llvm.lifetime.start.p0(i64 4, ptr %8) #6
  %12 = load ptr, ptr %6, align 8, !tbaa !3
  %13 = call i32 (ptr, ptr, ...) @PyArg_ParseTuple(ptr noundef %12, ptr noundef @.str.7, ptr noundef %8)
  %14 = icmp ne i32 %13, 0
  br i1 %14, label %16, label %15

15:                                               ; preds = %3
  store ptr null, ptr %4, align 8
  store i32 1, ptr %9, align 4
  br label %45

16:                                               ; preds = %3
  call void @llvm.lifetime.start.p0(i64 8, ptr %10) #6
  %17 = load i32, ptr %8, align 4, !tbaa !25
  %18 = sext i32 %17 to i64
  %19 = call ptr @PyMem_Calloc(i64 noundef %18, i64 noundef 2)
  store ptr %19, ptr %10, align 8, !tbaa !32
  %20 = load ptr, ptr %10, align 8, !tbaa !32
  %21 = icmp eq ptr %20, null
  br i1 %21, label %22, label %23

22:                                               ; preds = %16
  store ptr null, ptr %4, align 8
  store i32 1, ptr %9, align 4
  br label %44

23:                                               ; preds = %16
  call void @llvm.lifetime.start.p0(i64 8, ptr %11) #6
  %24 = load ptr, ptr %5, align 8, !tbaa !31
  %25 = getelementptr inbounds nuw %struct._typeobject, ptr %24, i32 0, i32 36
  %26 = load ptr, ptr %25, align 8, !tbaa !33
  %27 = load ptr, ptr %5, align 8, !tbaa !31
  %28 = call ptr %26(ptr noundef %27, i64 noundef 0)
  store ptr %28, ptr %11, align 8, !tbaa !9
  %29 = load ptr, ptr %11, align 8, !tbaa !9
  %30 = icmp ne ptr %29, null
  br i1 %30, label %31, label %40

31:                                               ; preds = %23
  %32 = load ptr, ptr %11, align 8, !tbaa !9
  %33 = getelementptr inbounds nuw %struct.PyCodeLikeObject, ptr %32, i32 0, i32 2
  store i64 0, ptr %33, align 8, !tbaa !34
  %34 = load ptr, ptr %10, align 8, !tbaa !32
  %35 = load ptr, ptr %11, align 8, !tbaa !9
  %36 = getelementptr inbounds nuw %struct.PyCodeLikeObject, ptr %35, i32 0, i32 1
  store ptr %34, ptr %36, align 8, !tbaa !10
  %37 = load i32, ptr %8, align 4, !tbaa !25
  %38 = load ptr, ptr %11, align 8, !tbaa !9
  %39 = getelementptr inbounds nuw %struct.PyCodeLikeObject, ptr %38, i32 0, i32 3
  store i32 %37, ptr %39, align 8, !tbaa !26
  br label %42

40:                                               ; preds = %23
  %41 = load ptr, ptr %10, align 8, !tbaa !32
  call void @PyMem_Free(ptr noundef %41)
  br label %42

42:                                               ; preds = %40, %31
  %43 = load ptr, ptr %11, align 8, !tbaa !9
  store ptr %43, ptr %4, align 8
  store i32 1, ptr %9, align 4
  call void @llvm.lifetime.end.p0(i64 8, ptr %11) #6
  br label %44

44:                                               ; preds = %42, %22
  call void @llvm.lifetime.end.p0(i64 8, ptr %10) #6
  br label %45

45:                                               ; preds = %44, %15
  call void @llvm.lifetime.end.p0(i64 4, ptr %8) #6
  %46 = load ptr, ptr %4, align 8
  ret ptr %46
}