; Function Attrs: nounwind uwtable
define internal ptr @CodeLike_new(ptr noundef %0, ptr noundef %1, ptr readnone captures(none) %2) #0 {
  %4 = alloca i32, align 4
  call void @llvm.lifetime.start.p0(i64 4, ptr nonnull %4) #4
  %5 = call i32 (ptr, ptr, ...) @PyArg_ParseTuple(ptr noundef %1, ptr noundef nonnull @.str.7, ptr noundef nonnull %4) #4
  %.not = icmp eq i32 %5, 0
  br i1 %.not, label %21, label %6

6:                                                ; preds = %3
  %7 = load i32, ptr %4, align 4, !tbaa !29
  %8 = sext i32 %7 to i64
  %9 = call ptr @PyMem_Calloc(i64 noundef %8, i64 noundef 2) #4
  %10 = icmp eq ptr %9, null
  br i1 %10, label %21, label %11

11:                                               ; preds = %6
  %12 = getelementptr inbounds nuw i8, ptr %0, i64 304
  %13 = load ptr, ptr %12, align 8, !tbaa !30
  %14 = call ptr %13(ptr noundef %0, i64 noundef 0) #4
  %.not14 = icmp eq ptr %14, null
  br i1 %.not14, label %20, label %15

15:                                               ; preds = %11
  %16 = getelementptr inbounds nuw i8, ptr %14, i64 24
  store i64 0, ptr %16, align 8, !tbaa !31
  %17 = getelementptr inbounds nuw i8, ptr %14, i64 16
  store ptr %9, ptr %17, align 8, !tbaa !6
  %18 = load i32, ptr %4, align 4, !tbaa !29
  %19 = getelementptr inbounds nuw i8, ptr %14, i64 32
  store i32 %18, ptr %19, align 8, !tbaa !24
  br label %21

20:                                               ; preds = %11
  call void @PyMem_Free(ptr noundef nonnull %9) #4
  br label %21

21:                                               ; preds = %6, %20, %15, %3
  %.0 = phi ptr [ null, %3 ], [ null, %6 ], [ null, %20 ], [ %14, %15 ]
  call void @llvm.lifetime.end.p0(i64 4, ptr nonnull %4) #4
  ret ptr %.0
}